target datalayout = "e-m:e-p270:32:32-p271:32:32-p272:64:64-i64:64-i128:128-f80:128-n8:16:32:64-S128"
target triple = "x86_64-pc-linux-gnu"

%"class.LIEF::MachO::DynamicSymbolCommand" = type { %"class.LIEF::MachO::LoadCommand", i32, i32, i32, i32, i32, i32, i32, i32, i32, i32, i32, i32, i32, i32, i32, i32, i32, i32, %"class.std::vector.0" }
%"class.LIEF::MachO::LoadCommand" = type { %"class.LIEF::Object", %"class.std::vector", i64, i32, i64 }
%"class.LIEF::Object" = type { ptr }
%"class.std::vector" = type { %"struct.std::_Vector_base" }
%"struct.std::_Vector_base" = type { %"struct.std::_Vector_base<unsigned char, std::allocator<unsigned char>>::_Vector_impl" }
%"struct.std::_Vector_base<unsigned char, std::allocator<unsigned char>>::_Vector_impl" = type { %"struct.std::_Vector_base<unsigned char, std::allocator<unsigned char>>::_Vector_impl_data" }
%"struct.std::_Vector_base<unsigned char, std::allocator<unsigned char>>::_Vector_impl_data" = type { ptr, ptr, ptr }
%"class.std::vector.0" = type { %"struct.std::_Vector_base.1" }
%"struct.std::_Vector_base.1" = type { %"struct.std::_Vector_base<LIEF::MachO::Symbol *, std::allocator<LIEF::MachO::Symbol *>>::_Vector_impl" }
%"struct.std::_Vector_base<LIEF::MachO::Symbol *, std::allocator<LIEF::MachO::Symbol *>>::_Vector_impl" = type { %"struct.std::_Vector_base<LIEF::MachO::Symbol *, std::allocator<LIEF::MachO::Symbol *>>::_Vector_impl_data" }
%"struct.std::_Vector_base<LIEF::MachO::Symbol *, std::allocator<LIEF::MachO::Symbol *>>::_Vector_impl_data" = type { ptr, ptr, ptr }
%"struct.LIEF::MachO::details::dysymtab_command" = type { i32, i32, i32, i32, i32, i32, i32, i32, i32, i32, i32, i32, i32, i32, i32, i32, i32, i32, i32, i32 }

; Function Attrs: mustprogress nounwind uwtable
define linkonce_odr hidden void @_ZNSt15__new_allocatorIPN4LIEF5MachO6SymbolEEC2Ev(ptr noundef nonnull align 1 dereferenceable(1) %0) unnamed_addr #2 comdat align 2 {
  %2 = alloca ptr, align 8
  store ptr %0, ptr %2, align 8
  ret void
}

; Function Attrs: mustprogress nounwind uwtable
define linkonce_odr hidden void @_ZNSt12_Vector_baseIPN4LIEF5MachO6SymbolESaIS3_EE17_Vector_impl_dataC2Ev(ptr noundef nonnull align 8 dereferenceable(24) %0) unnamed_addr #2 comdat align 2 {
  %2 = alloca ptr, align 8
  store ptr %0, ptr %2, align 8
  %3 = load ptr, ptr %2, align 8
  %4 = getelementptr inbounds %"struct.std::_Vector_base<LIEF::MachO::Symbol *, std::allocator<LIEF::MachO::Symbol *>>::_Vector_impl_data", ptr %3, i32 0, i32 0
  store ptr null, ptr %4, align 8
  %5 = getelementptr inbounds %"struct.std::_Vector_base<LIEF::MachO::Symbol *, std::allocator<LIEF::MachO::Symbol *>>::_Vector_impl_data", ptr %3, i32 0, i32 1
  store ptr null, ptr %5, align 8
  %6 = getelementptr inbounds %"struct.std::_Vector_base<LIEF::MachO::Symbol *, std::allocator<LIEF::MachO::Symbol *>>::_Vector_impl_data", ptr %3, i32 0, i32 2
  store ptr null, ptr %6, align 8
  ret void
}

; Function Attrs: mustprogress nounwind uwtable
define linkonce_odr hidden void @_ZNSaIPN4LIEF5MachO6SymbolEEC2Ev(ptr noundef nonnull align 1 dereferenceable(1) %0) unnamed_addr #2 comdat align 2 {
  %2 = alloca ptr, align 8
  store ptr %0, ptr %2, align 8
  %3 = load ptr, ptr %2, align 8
  call void @_ZNSt15__new_allocatorIPN4LIEF5MachO6SymbolEEC2Ev(ptr noundef nonnull align 1 dereferenceable(1) %3) #10
  ret void
}

; Function Attrs: mustprogress nounwind uwtable
define linkonce_odr hidden void @_ZNSt12_Vector_baseIPN4LIEF5MachO6SymbolESaIS3_EE12_Vector_implC2Ev(ptr noundef nonnull align 8 dereferenceable(24) %0) unnamed_addr #2 comdat align 2 {
  %2 = alloca ptr, align 8
  store ptr %0, ptr %2, align 8
  %3 = load ptr, ptr %2, align 8
  call void @_ZNSaIPN4LIEF5MachO6SymbolEEC2Ev(ptr noundef nonnull align 1 dereferenceable(1) %3) #10
  call void @_ZNSt12_Vector_baseIPN4LIEF5MachO6SymbolESaIS3_EE17_Vector_impl_dataC2Ev(ptr noundef nonnull align 8 dereferenceable(24) %3) #10
  ret void
}

; Function Attrs: mustprogress nounwind uwtable
define linkonce_odr hidden void @_ZNSt12_Vector_baseIPN4LIEF5MachO6SymbolESaIS3_EEC2Ev(ptr noundef nonnull align 8 dereferenceable(24) %0) unnamed_addr #2 comdat align 2 {
  %2 = alloca ptr, align 8
  store ptr %0, ptr %2, align 8
  %3 = load ptr, ptr %2, align 8
  %4 = getelementptr inbounds %"struct.std::_Vector_base.1", ptr %3, i32 0, i32 0
  call void @_ZNSt12_Vector_baseIPN4LIEF5MachO6SymbolESaIS3_EE12_Vector_implC2Ev(ptr noundef nonnull align 8 dereferenceable(24) %4) #10
  ret void
}

; Function Attrs: mustprogress nounwind uwtable
define linkonce_odr hidden void @_ZNSt6vectorIPN4LIEF5MachO6SymbolESaIS3_EEC2Ev(ptr noundef nonnull align 8 dereferenceable(24) %0) unnamed_addr #2 comdat align 2 {
  %2 = alloca ptr, align 8
  store ptr %0, ptr %2, align 8
  %3 = load ptr, ptr %2, align 8
  call void @_ZNSt12_Vector_baseIPN4LIEF5MachO6SymbolESaIS3_EEC2Ev(ptr noundef nonnull align 8 dereferenceable(24) %3) #10
  ret void
}

; Function Attrs: mustprogress uwtable
define void @_ZN4LIEF5MachO20DynamicSymbolCommandC2ERKNS0_7details16dysymtab_commandE(ptr noundef nonnull align 8 dereferenceable(152) %0, ptr noundef nonnull align 4 dereferenceable(80) %1) unnamed_addr #0 align 2 {
  %3 = alloca ptr, align 8
  %4 = alloca ptr, align 8
  store ptr %0, ptr %3, align 8
  store ptr %1, ptr %4, align 8
  %5 = load ptr, ptr %3, align 8
  %6 = load ptr, ptr %4, align 8
  %7 = getelementptr inbounds %"struct.LIEF::MachO::details::dysymtab_command", ptr %6, i32 0, i32 0
  %8 = load i32, ptr %7, align 4
  %9 = zext i32 %8 to i64
  %10 = load ptr, ptr %4, align 8
  %11 = getelementptr inbounds %"struct.LIEF::MachO::details::dysymtab_command", ptr %10, i32 0, i32 1
  %12 = load i32, ptr %11, align 4
  call void @_ZN4LIEF5MachO11LoadCommandC2ENS0_18LOAD_COMMAND_TYPESEj(ptr noundef nonnull align 8 dereferenceable(56) %5, i64 noundef %9, i32 noundef %12)
  store ptr getelementptr inbounds ({ [9 x ptr] }, ptr @_ZTVN4LIEF5MachO20DynamicSymbolCommandE, i32 0, i32 0, i32 2), ptr %5, align 8
  %13 = getelementptr inbounds %"class.LIEF::MachO::DynamicSymbolCommand", ptr %5, i32 0, i32 1
  %14 = load ptr, ptr %4, align 8
  %15 = getelementptr inbounds %"struct.LIEF::MachO::details::dysymtab_command", ptr %14, i32 0, i32 2
  %16 = load i32, ptr %15, align 4
  store i32 %16, ptr %13, align 8
  %17 = getelementptr inbounds %"class.LIEF::MachO::DynamicSymbolCommand", ptr %5, i32 0, i32 2
  %18 = load ptr, ptr %4, align 8
  %19 = getelementptr inbounds %"struct.LIEF::MachO::details::dysymtab_command", ptr %18, i32 0, i32 3
  %20 = load i32, ptr %19, align 4
  store i32 %20, ptr %17, align 4
  %21 = getelementptr inbounds %"class.LIEF::MachO::DynamicSymbolCommand", ptr %5, i32 0, i32 3
  %22 = load ptr, ptr %4, align 8
  %23 = getelementptr inbounds %"struct.LIEF::MachO::details::dysymtab_command", ptr %22, i32 0, i32 4
  %24 = load i32, ptr %23, align 4
  store i32 %24, ptr %21, align 8
  %25 = getelementptr inbounds %"class.LIEF::MachO::DynamicSymbolCommand", ptr %5, i32 0, i32 4
  %26 = load ptr, ptr %4, align 8
  %27 = getelementptr inbounds %"struct.LIEF::MachO::details::dysymtab_command", ptr %26, i32 0, i32 5
  %28 = load i32, ptr %27, align 4
  store i32 %28, ptr %25, align 4
  %29 = getelementptr inbounds %"class.LIEF::MachO::DynamicSymbolCommand", ptr %5, i32 0, i32 5
  %30 = load ptr, ptr %4, align 8
  %31 = getelementptr inbounds %"struct.LIEF::MachO::details::dysymtab_command", ptr %30, i32 0, i32 6
  %32 = load i32, ptr %31, align 4
  store i32 %32, ptr %29, align 8
  %33 = getelementptr inbounds %"class.LIEF::MachO::DynamicSymbolCommand", ptr %5, i32 0, i32 6
  %34 = load ptr, ptr %4, align 8
  %35 = getelementptr inbounds %"struct.LIEF::MachO::details::dysymtab_command", ptr %34, i32 0, i32 7
  %36 = load i32, ptr %35, align 4
  store i32 %36, ptr %33, align 4
  %37 = getelementptr inbounds %"class.LIEF::MachO::DynamicSymbolCommand", ptr %5, i32 0, i32 7
  %38 = load ptr, ptr %4, align 8
  %39 = getelementptr inbounds %"struct.LIEF::MachO::details::dysymtab_command", ptr %38, i32 0, i32 8
  %40 = load i32, ptr %39, align 4
  store i32 %40, ptr %37, align 8
  %41 = getelementptr inbounds %"class.LIEF::MachO::DynamicSymbolCommand", ptr %5, i32 0, i32 8
  %42 = load ptr, ptr %4, align 8
  %43 = getelementptr inbounds %"struct.LIEF::MachO::details::dysymtab_command", ptr %42, i32 0, i32 9
  %44 = load i32, ptr %43, align 4
  store i32 %44, ptr %41, align 4
  %45 = getelementptr inbounds %"class.LIEF::MachO::DynamicSymbolCommand", ptr %5, i32 0, i32 9
  %46 = load ptr, ptr %4, align 8
  %47 = getelementptr inbounds %"struct.LIEF::MachO::details::dysymtab_command", ptr %46, i32 0, i32 10
  %48 = load i32, ptr %47, align 4
  store i32 %48, ptr %45, align 8
  %49 = getelementptr inbounds %"class.LIEF::MachO::DynamicSymbolCommand", ptr %5, i32 0, i32 10
  %50 = load ptr, ptr %4, align 8
  %51 = getelementptr inbounds %"struct.LIEF::MachO::details::dysymtab_command", ptr %50, i32 0, i32 11
  %52 = load i32, ptr %51, align 4
  store i32 %52, ptr %49, align 4
  %53 = getelementptr inbounds %"class.LIEF::MachO::DynamicSymbolCommand", ptr %5, i32 0, i32 11
  %54 = load ptr, ptr %4, align 8
  %55 = getelementptr inbounds %"struct.LIEF::MachO::details::dysymtab_command", ptr %54, i32 0, i32 12
  %56 = load i32, ptr %55, align 4
  store i32 %56, ptr %53, align 8
  %57 = getelementptr inbounds %"class.LIEF::MachO::DynamicSymbolCommand", ptr %5, i32 0, i32 12
  %58 = load ptr, ptr %4, align 8
  %59 = getelementptr inbounds %"struct.LIEF::MachO::details::dysymtab_command", ptr %58, i32 0, i32 13
  %60 = load i32, ptr %59, align 4
  store i32 %60, ptr %57, align 4
  %61 = getelementptr inbounds %"class.LIEF::MachO::DynamicSymbolCommand", ptr %5, i32 0, i32 13
  %62 = load ptr, ptr %4, align 8
  %63 = getelementptr inbounds %"struct.LIEF::MachO::details::dysymtab_command", ptr %62, i32 0, i32 14
  %64 = load i32, ptr %63, align 4
  store i32 %64, ptr %61, align 8
  %65 = getelementptr inbounds %"class.LIEF::MachO::DynamicSymbolCommand", ptr %5, i32 0, i32 14
  %66 = load ptr, ptr %4, align 8
  %67 = getelementptr inbounds %"struct.LIEF::MachO::details::dysymtab_command", ptr %66, i32 0, i32 15
  %68 = load i32, ptr %67, align 4
  store i32 %68, ptr %65, align 4
  %69 = getelementptr inbounds %"class.LIEF::MachO::DynamicSymbolCommand", ptr %5, i32 0, i32 15
  %70 = load ptr, ptr %4, align 8
  %71 = getelementptr inbounds %"struct.LIEF::MachO::details::dysymtab_command", ptr %70, i32 0, i32 16
  %72 = load i32, ptr %71, align 4
  store i32 %72, ptr %69, align 8
  %73 = getelementptr inbounds %"class.LIEF::MachO::DynamicSymbolCommand", ptr %5, i32 0, i32 16
  %74 = load ptr, ptr %4, align 8
  %75 = getelementptr inbounds %"struct.LIEF::MachO::details::dysymtab_command", ptr %74, i32 0, i32 17
  %76 = load i32, ptr %75, align 4
  store i32 %76, ptr %73, align 4
  %77 = getelementptr inbounds %"class.LIEF::MachO::DynamicSymbolCommand", ptr %5, i32 0, i32 17
  %78 = load ptr, ptr %4, align 8
  %79 = getelementptr inbounds %"struct.LIEF::MachO::details::dysymtab_command", ptr %78, i32 0, i32 18
  %80 = load i32, ptr %79, align 4
  store i32 %80, ptr %77, align 8
  %81 = getelementptr inbounds %"class.LIEF::MachO::DynamicSymbolCommand", ptr %5, i32 0, i32 18
  %82 = load ptr, ptr %4, align 8
  %83 = getelementptr inbounds %"struct.LIEF::MachO::details::dysymtab_command", ptr %82, i32 0, i32 19
  %84 = load i32, ptr %83, align 4
  store i32 %84, ptr %81, align 4
  %85 = getelementptr inbounds %"class.LIEF::MachO::DynamicSymbolCommand", ptr %5, i32 0, i32 19
  call void @_ZNSt6vectorIPN4LIEF5MachO6SymbolESaIS3_EEC2Ev(ptr noundef nonnull align 8 dereferenceable(24) %85) #10
  ret void
}