; Function Attrs: mustprogress uwtable
define void @_ZN4LIEF5MachO20DynamicSymbolCommandC2ERKNS0_7details16dysymtab_commandE(ptr noundef nonnull align 8 dereferenceable(152) %0, ptr nocapture noundef nonnull readonly align 4 dereferenceable(80) %1) unnamed_addr #0 align 2 {
  %3 = load i32, ptr %1, align 4
  %4 = zext i32 %3 to i64
  %5 = getelementptr inbounds i8, ptr %1, i64 4
  %6 = load i32, ptr %5, align 4
  tail call void @_ZN4LIEF5MachO11LoadCommandC2ENS0_18LOAD_COMMAND_TYPESEj(ptr noundef nonnull align 8 dereferenceable(56) %0, i64 noundef %4, i32 noundef %6)
  store ptr getelementptr inbounds ({ [9 x ptr] }, ptr @_ZTVN4LIEF5MachO20DynamicSymbolCommandE, i64 0, i32 0, i64 2), ptr %0, align 8
  %7 = getelementptr inbounds i8, ptr %0, i64 56
  %8 = getelementptr inbounds i8, ptr %1, i64 8
  %9 = load i32, ptr %8, align 4
  store i32 %9, ptr %7, align 8
  %10 = getelementptr inbounds i8, ptr %0, i64 60
  %11 = getelementptr inbounds i8, ptr %1, i64 12
  %12 = load i32, ptr %11, align 4
  store i32 %12, ptr %10, align 4
  %13 = getelementptr inbounds i8, ptr %0, i64 64
  %14 = getelementptr inbounds i8, ptr %1, i64 16
  %15 = load i32, ptr %14, align 4
  store i32 %15, ptr %13, align 8
  %16 = getelementptr inbounds i8, ptr %0, i64 68
  %17 = getelementptr inbounds i8, ptr %1, i64 20
  %18 = load i32, ptr %17, align 4
  store i32 %18, ptr %16, align 4
  %19 = getelementptr inbounds i8, ptr %0, i64 72
  %20 = getelementptr inbounds i8, ptr %1, i64 24
  %21 = load i32, ptr %20, align 4
  store i32 %21, ptr %19, align 8
  %22 = getelementptr inbounds i8, ptr %0, i64 76
  %23 = getelementptr inbounds i8, ptr %1, i64 28
  %24 = load i32, ptr %23, align 4
  store i32 %24, ptr %22, align 4
  %25 = getelementptr inbounds i8, ptr %0, i64 80
  %26 = getelementptr inbounds i8, ptr %1, i64 32
  %27 = load i32, ptr %26, align 4
  store i32 %27, ptr %25, align 8
  %28 = getelementptr inbounds i8, ptr %0, i64 84
  %29 = getelementptr inbounds i8, ptr %1, i64 36
  %30 = load i32, ptr %29, align 4
  store i32 %30, ptr %28, align 4
  %31 = getelementptr inbounds i8, ptr %0, i64 88
  %32 = getelementptr inbounds i8, ptr %1, i64 40
  %33 = load i32, ptr %32, align 4
  store i32 %33, ptr %31, align 8
  %34 = getelementptr inbounds i8, ptr %0, i64 92
  %35 = getelementptr inbounds i8, ptr %1, i64 44
  %36 = load i32, ptr %35, align 4
  store i32 %36, ptr %34, align 4
  %37 = getelementptr inbounds i8, ptr %0, i64 96
  %38 = getelementptr inbounds i8, ptr %1, i64 48
  %39 = load i32, ptr %38, align 4
  store i32 %39, ptr %37, align 8
  %40 = getelementptr inbounds i8, ptr %0, i64 100
  %41 = getelementptr inbounds i8, ptr %1, i64 52
  %42 = load i32, ptr %41, align 4
  store i32 %42, ptr %40, align 4
  %43 = getelementptr inbounds i8, ptr %0, i64 104
  %44 = getelementptr inbounds i8, ptr %1, i64 56
  %45 = load i32, ptr %44, align 4
  store i32 %45, ptr %43, align 8
  %46 = getelementptr inbounds i8, ptr %0, i64 108
  %47 = getelementptr inbounds i8, ptr %1, i64 60
  %48 = load i32, ptr %47, align 4
  store i32 %48, ptr %46, align 4
  %49 = getelementptr inbounds i8, ptr %0, i64 112
  %50 = getelementptr inbounds i8, ptr %1, i64 64
  %51 = load i32, ptr %50, align 4
  store i32 %51, ptr %49, align 8
  %52 = getelementptr inbounds i8, ptr %0, i64 116
  %53 = getelementptr inbounds i8, ptr %1, i64 68
  %54 = load i32, ptr %53, align 4
  store i32 %54, ptr %52, align 4
  %55 = getelementptr inbounds i8, ptr %0, i64 120
  %56 = getelementptr inbounds i8, ptr %1, i64 72
  %57 = load i32, ptr %56, align 4
  store i32 %57, ptr %55, align 8
  %58 = getelementptr inbounds i8, ptr %0, i64 124
  %59 = getelementptr inbounds i8, ptr %1, i64 76
  %60 = load i32, ptr %59, align 4
  store i32 %60, ptr %58, align 4
  %61 = getelementptr inbounds i8, ptr %0, i64 128
  tail call void @llvm.memset.p0.i64(ptr noundef nonnull align 8 dereferenceable(24) %61, i8 0, i64 24, i1 false)
  ret void
}